#include <math.h>
#include <stdio.h>
#include <stdlib.h>
#include <string.h>

int main()
{
    int m,n,i;
    scanf("%d",&m);
    int jiao(int );
    if(m!=1)
    {
    do{ 
       if(m%2==1)
    {
             n=m*3+1;
             printf("%d*3+1=%d\n",m,n);
    }
    if(m%2==0)
    {
              n=m/2;
              printf("%d/2=%d\n",m,n);
    }
    m=n;
      }
    while(n!=1);
    }
    printf("End");
    getchar();
    getchar();
    getchar();   
}