; ModuleID = '34/17.c'
source_filename = "34/17.c"
target datalayout = "e-m:e-p270:32:32-p271:32:32-p272:64:64-i64:64-f80:128-n8:16:32:64-S128"
target triple = "x86_64-pc-linux-gnu"

@.str = private unnamed_addr constant [3 x i8] c"%d\00", align 1
@.str.1 = private unnamed_addr constant [11 x i8] c"%d*3+1=%d\0A\00", align 1
@.str.2 = private unnamed_addr constant [9 x i8] c"%d/2=%d\0A\00", align 1
@.str.3 = private unnamed_addr constant [4 x i8] c"End\00", align 1

; Function Attrs: noinline nounwind uwtable
define dso_local i32 @main() #0 {
  %1 = alloca i32, align 4
  %2 = alloca i32, align 4
  %3 = alloca i32, align 4
  %4 = alloca i32, align 4
  store i32 0, i32* %1, align 4
  %5 = call i32 (i8*, ...) @__isoc99_scanf(i8* getelementptr inbounds ([3 x i8], [3 x i8]* @.str, i64 0, i64 0), i32* %2)
  %6 = load i32, i32* %2, align 4
  %7 = icmp ne i32 %6, 1
  br i1 %7, label %8, label %36

8:                                                ; preds = %0
  br label %9

9:                                                ; preds = %32, %8
  %10 = load i32, i32* %2, align 4
  %11 = srem i32 %10, 2
  %12 = icmp eq i32 %11, 1
  br i1 %12, label %13, label %20

13:                                               ; preds = %9
  %14 = load i32, i32* %2, align 4
  %15 = mul nsw i32 %14, 3
  %16 = add nsw i32 %15, 1
  store i32 %16, i32* %3, align 4
  %17 = load i32, i32* %2, align 4
  %18 = load i32, i32* %3, align 4
  %19 = call i32 (i8*, ...) @printf(i8* getelementptr inbounds ([11 x i8], [11 x i8]* @.str.1, i64 0, i64 0), i32 %17, i32 %18)
  br label %20

20:                                               ; preds = %13, %9
  %21 = load i32, i32* %2, align 4
  %22 = srem i32 %21, 2
  %23 = icmp eq i32 %22, 0
  br i1 %23, label %24, label %30

24:                                               ; preds = %20
  %25 = load i32, i32* %2, align 4
  %26 = sdiv i32 %25, 2
  store i32 %26, i32* %3, align 4
  %27 = load i32, i32* %2, align 4
  %28 = load i32, i32* %3, align 4
  %29 = call i32 (i8*, ...) @printf(i8* getelementptr inbounds ([9 x i8], [9 x i8]* @.str.2, i64 0, i64 0), i32 %27, i32 %28)
  br label %30

30:                                               ; preds = %24, %20
  %31 = load i32, i32* %3, align 4
  store i32 %31, i32* %2, align 4
  br label %32

32:                                               ; preds = %30
  %33 = load i32, i32* %3, align 4
  %34 = icmp ne i32 %33, 1
  br i1 %34, label %9, label %35

35:                                               ; preds = %32
  br label %36

36:                                               ; preds = %35, %0
  %37 = call i32 (i8*, ...) @printf(i8* getelementptr inbounds ([4 x i8], [4 x i8]* @.str.3, i64 0, i64 0))
  %38 = call i32 @getchar()
  %39 = call i32 @getchar()
  %40 = call i32 @getchar()
  %41 = load i32, i32* %1, align 4
  ret i32 %41
}

declare dso_local i32 @__isoc99_scanf(i8*, ...) #1

declare dso_local i32 @printf(i8*, ...) #1

declare dso_local i32 @getchar() #1


!llvm.module.flags = !{!0}
!llvm.ident = !{!1}

!0 = !{i32 1, !"wchar_size", i32 4}
!1 = !{!"clang version 10.0.0-4ubuntu1 "}
